ccopy_reg
_reconstructor
p0
(cdedupe.datamodel
DataModel
p1
c__builtin__
dict
p2
(dp3
S'fields'
p4
(lp5
g0
(cdedupe.variables.string
StringType
p6
c__builtin__
object
p7
Ntp8
Rp9
(dp10
S'predicates'
p11
(lp12
g0
(cdedupe.predicates
SimplePredicate
p13
g7
Ntp14
Rp15
(dp16
S'__name__'
p17
S'(wholeFieldPredicate, name)'
p18
sS'func'
p19
cdedupe.predicates
wholeFieldPredicate
p20
sS'field'
p21
S'name'
p22
sbag0
(g13
g7
Ntp23
Rp24
(dp25
g17
S'(firstTokenPredicate, name)'
p26
sg19
cdedupe.predicates
firstTokenPredicate
p27
sg21
g22
sbag0
(g13
g7
Ntp28
Rp29
(dp30
g17
S'(commonIntegerPredicate, name)'
p31
sg19
cdedupe.predicates
commonIntegerPredicate
p32
sg21
g22
sbag0
(g13
g7
Ntp33
Rp34
(dp35
g17
S'(nearIntegersPredicate, name)'
p36
sg19
cdedupe.predicates
nearIntegersPredicate
p37
sg21
g22
sbag0
(g13
g7
Ntp38
Rp39
(dp40
g17
S'(firstIntegerPredicate, name)'
p41
sg19
cdedupe.predicates
firstIntegerPredicate
p42
sg21
g22
sbag0
(g13
g7
Ntp43
Rp44
(dp45
g17
S'(sameThreeCharStartPredicate, name)'
p46
sg19
cdedupe.predicates
sameThreeCharStartPredicate
p47
sg21
g22
sbag0
(g13
g7
Ntp48
Rp49
(dp50
g17
S'(sameFiveCharStartPredicate, name)'
p51
sg19
cdedupe.predicates
sameFiveCharStartPredicate
p52
sg21
g22
sbag0
(g13
g7
Ntp53
Rp54
(dp55
g17
S'(sameSevenCharStartPredicate, name)'
p56
sg19
cdedupe.predicates
sameSevenCharStartPredicate
p57
sg21
g22
sbag0
(g13
g7
Ntp58
Rp59
(dp60
g17
S'(commonTwoTokens, name)'
p61
sg19
cdedupe.predicates
commonTwoTokens
p62
sg21
g22
sbag0
(g13
g7
Ntp63
Rp64
(dp65
g17
S'(commonThreeTokens, name)'
p66
sg19
cdedupe.predicates
commonThreeTokens
p67
sg21
g22
sbag0
(g13
g7
Ntp68
Rp69
(dp70
g17
S'(fingerprint, name)'
p71
sg19
cdedupe.predicates
fingerprint
p72
sg21
g22
sbag0
(g13
g7
Ntp73
Rp74
(dp75
g17
S'(oneGramFingerprint, name)'
p76
sg19
cdedupe.predicates
oneGramFingerprint
p77
sg21
g22
sbag0
(g13
g7
Ntp78
Rp79
(dp80
g17
S'(twoGramFingerprint, name)'
p81
sg19
cdedupe.predicates
twoGramFingerprint
p82
sg21
g22
sbag0
(g13
g7
Ntp83
Rp84
(dp85
g17
S'(sortedAcronym, name)'
p86
sg19
cdedupe.predicates
sortedAcronym
p87
sg21
g22
sbag0
(g13
g7
Ntp88
Rp89
(dp90
g17
S'(commonFourGram, name)'
p91
sg19
cdedupe.predicates
commonFourGram
p92
sg21
g22
sbag0
(g13
g7
Ntp93
Rp94
(dp95
g17
S'(commonSixGram, name)'
p96
sg19
cdedupe.predicates
commonSixGram
p97
sg21
g22
sbag0
(g13
g7
Ntp98
Rp99
(dp100
g17
S'(tokenFieldPredicate, name)'
p101
sg19
cdedupe.predicates
tokenFieldPredicate
p102
sg21
g22
sbag0
(g13
g7
Ntp103
Rp104
(dp105
g17
S'(suffixArray, name)'
p106
sg19
cdedupe.predicates
suffixArray
p107
sg21
g22
sbag0
(g13
g7
Ntp108
Rp109
(dp110
g17
S'(doubleMetaphone, name)'
p111
sg19
cdedupe.predicates
doubleMetaphone
p112
sg21
g22
sbag0
(g13
g7
Ntp113
Rp114
(dp115
g17
S'(metaphoneToken, name)'
p116
sg19
cdedupe.predicates
metaphoneToken
p117
sg21
g22
sbag0
(cdedupe.predicates
TfidfNGramCanopyPredicate
p118
g7
Ntp119
Rp120
(dp121
S'threshold'
p122
F0.2
sg17
S'(0.2, name)'
p123
sg21
g22
sbag0
(g118
g7
Ntp124
Rp125
(dp126
g122
F0.4
sg17
S'(0.4, name)'
p127
sg21
g22
sbag0
(g118
g7
Ntp128
Rp129
(dp130
g122
F0.6
sg17
S'(0.6, name)'
p131
sg21
g22
sbag0
(g118
g7
Ntp132
Rp133
(dp134
g122
F0.8
sg17
S'(0.8, name)'
p135
sg21
g22
sbag0
(cdedupe.predicates
TfidfNGramSearchPredicate
p136
g7
Ntp137
Rp138
(dp139
g122
F0.2
sg17
S'(0.2, name)'
p140
sg21
g22
sbag0
(g136
g7
Ntp141
Rp142
(dp143
g122
F0.4
sg17
S'(0.4, name)'
p144
sg21
g22
sbag0
(g136
g7
Ntp145
Rp146
(dp147
g122
F0.6
sg17
S'(0.6, name)'
p148
sg21
g22
sbag0
(g136
g7
Ntp149
Rp150
(dp151
g122
F0.8
sg17
S'(0.8, name)'
p152
sg21
g22
sbag0
(cdedupe.predicates
TfidfTextCanopyPredicate
p153
g7
Ntp154
Rp155
(dp156
g122
F0.2
sg17
S'(0.2, name)'
p157
sg21
g22
sbag0
(g153
g7
Ntp158
Rp159
(dp160
g122
F0.4
sg17
S'(0.4, name)'
p161
sg21
g22
sbag0
(g153
g7
Ntp162
Rp163
(dp164
g122
F0.6
sg17
S'(0.6, name)'
p165
sg21
g22
sbag0
(g153
g7
Ntp166
Rp167
(dp168
g122
F0.8
sg17
S'(0.8, name)'
p169
sg21
g22
sbag0
(cdedupe.predicates
TfidfTextSearchPredicate
p170
g7
Ntp171
Rp172
(dp173
g122
F0.2
sg17
S'(0.2, name)'
p174
sg21
g22
sbag0
(g170
g7
Ntp175
Rp176
(dp177
g122
F0.4
sg17
S'(0.4, name)'
p178
sg21
g22
sbag0
(g170
g7
Ntp179
Rp180
(dp181
g122
F0.6
sg17
S'(0.6, name)'
p182
sg21
g22
sbag0
(g170
g7
Ntp183
Rp184
(dp185
g122
F0.8
sg17
S'(0.8, name)'
p186
sg21
g22
sbasg21
g22
sg22
S'(name: String)'
p187
sS'weight'
p188
F-0.8866750695431383
sS'has_missing'
p189
I00
sbag0
(g6
g7
Ntp190
Rp191
(dp192
g11
(lp193
g0
(g13
g7
Ntp194
Rp195
(dp196
g17
S'(wholeFieldPredicate, state)'
p197
sg19
g20
sg21
S'state'
p198
sbag0
(g13
g7
Ntp199
Rp200
(dp201
g17
S'(firstTokenPredicate, state)'
p202
sg19
g27
sg21
g198
sbag0
(g13
g7
Ntp203
Rp204
(dp205
g17
S'(commonIntegerPredicate, state)'
p206
sg19
g32
sg21
g198
sbag0
(g13
g7
Ntp207
Rp208
(dp209
g17
S'(nearIntegersPredicate, state)'
p210
sg19
g37
sg21
g198
sbag0
(g13
g7
Ntp211
Rp212
(dp213
g17
S'(firstIntegerPredicate, state)'
p214
sg19
g42
sg21
g198
sbag0
(g13
g7
Ntp215
Rp216
(dp217
g17
S'(sameThreeCharStartPredicate, state)'
p218
sg19
g47
sg21
g198
sbag0
(g13
g7
Ntp219
Rp220
(dp221
g17
S'(sameFiveCharStartPredicate, state)'
p222
sg19
g52
sg21
g198
sbag0
(g13
g7
Ntp223
Rp224
(dp225
g17
S'(sameSevenCharStartPredicate, state)'
p226
sg19
g57
sg21
g198
sbag0
(g13
g7
Ntp227
Rp228
(dp229
g17
S'(commonTwoTokens, state)'
p230
sg19
g62
sg21
g198
sbag0
(g13
g7
Ntp231
Rp232
(dp233
g17
S'(commonThreeTokens, state)'
p234
sg19
g67
sg21
g198
sbag0
(g13
g7
Ntp235
Rp236
(dp237
g17
S'(fingerprint, state)'
p238
sg19
g72
sg21
g198
sbag0
(g13
g7
Ntp239
Rp240
(dp241
g17
S'(oneGramFingerprint, state)'
p242
sg19
g77
sg21
g198
sbag0
(g13
g7
Ntp243
Rp244
(dp245
g17
S'(twoGramFingerprint, state)'
p246
sg19
g82
sg21
g198
sbag0
(g13
g7
Ntp247
Rp248
(dp249
g17
S'(sortedAcronym, state)'
p250
sg19
g87
sg21
g198
sbag0
(g13
g7
Ntp251
Rp252
(dp253
g17
S'(commonFourGram, state)'
p254
sg19
g92
sg21
g198
sbag0
(g13
g7
Ntp255
Rp256
(dp257
g17
S'(commonSixGram, state)'
p258
sg19
g97
sg21
g198
sbag0
(g13
g7
Ntp259
Rp260
(dp261
g17
S'(tokenFieldPredicate, state)'
p262
sg19
g102
sg21
g198
sbag0
(g13
g7
Ntp263
Rp264
(dp265
g17
S'(suffixArray, state)'
p266
sg19
g107
sg21
g198
sbag0
(g13
g7
Ntp267
Rp268
(dp269
g17
S'(doubleMetaphone, state)'
p270
sg19
g112
sg21
g198
sbag0
(g13
g7
Ntp271
Rp272
(dp273
g17
S'(metaphoneToken, state)'
p274
sg19
g117
sg21
g198
sbag0
(g118
g7
Ntp275
Rp276
(dp277
g122
F0.2
sg17
S'(0.2, state)'
p278
sg21
g198
sbag0
(g118
g7
Ntp279
Rp280
(dp281
g122
F0.4
sg17
S'(0.4, state)'
p282
sg21
g198
sbag0
(g118
g7
Ntp283
Rp284
(dp285
g122
F0.6
sg17
S'(0.6, state)'
p286
sg21
g198
sbag0
(g118
g7
Ntp287
Rp288
(dp289
g122
F0.8
sg17
S'(0.8, state)'
p290
sg21
g198
sbag0
(g136
g7
Ntp291
Rp292
(dp293
g122
F0.2
sg17
S'(0.2, state)'
p294
sg21
g198
sbag0
(g136
g7
Ntp295
Rp296
(dp297
g122
F0.4
sg17
S'(0.4, state)'
p298
sg21
g198
sbag0
(g136
g7
Ntp299
Rp300
(dp301
g122
F0.6
sg17
S'(0.6, state)'
p302
sg21
g198
sbag0
(g136
g7
Ntp303
Rp304
(dp305
g122
F0.8
sg17
S'(0.8, state)'
p306
sg21
g198
sbag0
(g153
g7
Ntp307
Rp308
(dp309
g122
F0.2
sg17
S'(0.2, state)'
p310
sg21
g198
sbag0
(g153
g7
Ntp311
Rp312
(dp313
g122
F0.4
sg17
S'(0.4, state)'
p314
sg21
g198
sbag0
(g153
g7
Ntp315
Rp316
(dp317
g122
F0.6
sg17
S'(0.6, state)'
p318
sg21
g198
sbag0
(g153
g7
Ntp319
Rp320
(dp321
g122
F0.8
sg17
S'(0.8, state)'
p322
sg21
g198
sbag0
(g170
g7
Ntp323
Rp324
(dp325
g122
F0.2
sg17
S'(0.2, state)'
p326
sg21
g198
sbag0
(g170
g7
Ntp327
Rp328
(dp329
g122
F0.4
sg17
S'(0.4, state)'
p330
sg21
g198
sbag0
(g170
g7
Ntp331
Rp332
(dp333
g122
F0.6
sg17
S'(0.6, state)'
p334
sg21
g198
sbag0
(g170
g7
Ntp335
Rp336
(dp337
g122
F0.8
sg17
S'(0.8, state)'
p338
sg21
g198
sbasg21
g198
sg22
S'(state: String)'
p339
sg188
F-0.7355571578464368
sg189
I00
sbasS'bias'
p340
cnumpy.core.multiarray
scalar
p341
(cnumpy
dtype
p342
(S'f8'
p343
I0
I1
tp344
Rp345
(I3
S'<'
p346
NNNI-1
I-1
I0
tp347
bS'\x85]j\xbb\xa38\xfc?'
p348
tp349
Rp350
stp351
Rp352
(dp353
S'primary_fields'
p354
(lp355
g9
ag191
asS'n_fields'
p356
I2
sS'derived_start'
p357
I2
sb.(ccopy_reg
_reconstructor
p0
(cdedupe.predicates
CompoundPredicate
p1
c__builtin__
object
p2
Ntp3
Rp4
(dp5
S'predicates'
p6
(g0
(cdedupe.predicates
SimplePredicate
p7
g2
Ntp8
Rp9
(dp10
S'__name__'
p11
S'(doubleMetaphone, name)'
p12
sS'func'
p13
cdedupe.predicates
doubleMetaphone
p14
sS'field'
p15
S'name'
p16
sbg0
(cdedupe.predicates
TfidfTextSearchPredicate
p17
g2
Ntp18
Rp19
(dp20
S'threshold'
p21
F0.8
sg11
S'(0.8, state)'
p22
sg15
S'state'
p23
sbtp24
sg11
V(SimplePredicate: (doubleMetaphone, name), TfidfTextSearchPredicate: (0.8, state))
p25
sbtp26
.(dp0
S'state'
p1
(dp2
S'TfidfTextSearchPredicate'
p3
c__builtin__
set
p4
((lp5
S'delhi'
p6
aS'maharashtra'
p7
atp8
Rp9
ss.